target datalayout = "e-m:e-p270:32:32-p271:32:32-p272:64:64-i64:64-i128:128-f80:128-n8:16:32:64-S128"
target triple = "x86_64-pc-linux-gnu"

%union.pthread_mutex_t = type { %struct.__pthread_mutex_s }
%struct.__pthread_mutex_s = type { i32, i32, i32, i32, i32, i16, i16, %struct.__pthread_internal_list }
%struct.__pthread_internal_list = type { ptr, ptr }
%struct.hostlist = type { i32, %union.pthread_mutex_t, i32, i32, i32, ptr, ptr }
%struct.hostrange_t = type { ptr, i64, i64, i32, i8 }

@.str.3 = private unnamed_addr constant [29 x i8] c"%s: pthread_mutex_lock(): %m\00", align 1
@.str.4 = private unnamed_addr constant [31 x i8] c"%s: pthread_mutex_unlock(): %m\00", align 1
@__func__.hostlist_delete_nth = private unnamed_addr constant [20 x i8] c"hostlist_delete_nth\00", align 1

; Function Attrs: nounwind uwtable
define internal i32 @hostrange_empty(ptr noundef %0) #0 {
  %2 = alloca ptr, align 8
  store ptr %0, ptr %2, align 8
  %3 = load ptr, ptr %2, align 8
  %4 = getelementptr inbounds nuw %struct.hostrange_t, ptr %3, i32 0, i32 2
  %5 = load i64, ptr %4, align 8
  %6 = load ptr, ptr %2, align 8
  %7 = getelementptr inbounds nuw %struct.hostrange_t, ptr %6, i32 0, i32 1
  %8 = load i64, ptr %7, align 8
  %9 = icmp ult i64 %5, %8
  br i1 %9, label %15, label %10

10:                                               ; preds = %1
  %11 = load ptr, ptr %2, align 8
  %12 = getelementptr inbounds nuw %struct.hostrange_t, ptr %11, i32 0, i32 2
  %13 = load i64, ptr %12, align 8
  %14 = icmp eq i64 %13, -1
  br label %15

15:                                               ; preds = %10, %1
  %16 = phi i1 [ true, %1 ], [ %14, %10 ]
  %17 = zext i1 %16 to i32
  ret i32 %17
}

; Function Attrs: nounwind uwtable
define internal void @hostrange_destroy(ptr noundef %0) #0 {
  %2 = alloca ptr, align 8
  store ptr %0, ptr %2, align 8
  %3 = load ptr, ptr %2, align 8
  %4 = icmp eq ptr %3, null
  br i1 %4, label %5, label %6

5:                                                ; preds = %1
  br label %9

6:                                                ; preds = %1
  %7 = load ptr, ptr %2, align 8
  %8 = getelementptr inbounds nuw %struct.hostrange_t, ptr %7, i32 0, i32 0
  call void @slurm_xfree(ptr noundef %8)
  call void @slurm_xfree(ptr noundef %2)
  br label %9

9:                                                ; preds = %6, %5
  ret void
}

; Function Attrs: nounwind uwtable
define internal i64 @hostrange_count(ptr noundef %0) #0 {
  %2 = alloca i64, align 8
  %3 = alloca ptr, align 8
  store ptr %0, ptr %3, align 8
  %4 = load ptr, ptr %3, align 8
  %5 = getelementptr inbounds nuw %struct.hostrange_t, ptr %4, i32 0, i32 4
  %6 = load i8, ptr %5, align 4, !range !12, !noundef !13
  %7 = trunc i8 %6 to i1
  br i1 %7, label %8, label %9

8:                                                ; preds = %1
  store i64 1, ptr %2, align 8
  br label %18

9:                                                ; preds = %1
  %10 = load ptr, ptr %3, align 8
  %11 = getelementptr inbounds nuw %struct.hostrange_t, ptr %10, i32 0, i32 2
  %12 = load i64, ptr %11, align 8
  %13 = load ptr, ptr %3, align 8
  %14 = getelementptr inbounds nuw %struct.hostrange_t, ptr %13, i32 0, i32 1
  %15 = load i64, ptr %14, align 8
  %16 = sub i64 %12, %15
  %17 = add i64 %16, 1
  store i64 %17, ptr %2, align 8
  br label %18

18:                                               ; preds = %9, %8
  %19 = load i64, ptr %2, align 8
  ret i64 %19
}

; Function Attrs: nounwind uwtable
define dso_local i32 @hostlist_delete_nth(ptr noundef %0, i32 noundef %1) #0 {
  %3 = alloca i32, align 4
  %4 = alloca ptr, align 8
  %5 = alloca i32, align 4
  %6 = alloca i32, align 4
  %7 = alloca i32, align 4
  %8 = alloca i32, align 4
  %9 = alloca i32, align 4
  %10 = alloca i32, align 4
  %11 = alloca ptr, align 8
  %12 = alloca i64, align 8
  %13 = alloca ptr, align 8
  %14 = alloca i32, align 4
  store ptr %0, ptr %4, align 8
  store i32 %1, ptr %5, align 4
  call void @llvm.lifetime.start.p0(i64 4, ptr %6) #13
  call void @llvm.lifetime.start.p0(i64 4, ptr %7) #13
  %15 = load ptr, ptr %4, align 8
  %16 = icmp ne ptr %15, null
  br i1 %16, label %18, label %17

17:                                               ; preds = %2
  store i32 -1, ptr %3, align 4
  store i32 1, ptr %8, align 4
  br label %134

18:                                               ; preds = %2
  br label %19

19:                                               ; preds = %18
  br label %20

20:                                               ; preds = %19
  call void @llvm.lifetime.start.p0(i64 4, ptr %9) #13
  %21 = load ptr, ptr %4, align 8
  %22 = getelementptr inbounds nuw %struct.hostlist, ptr %21, i32 0, i32 1
  %23 = call i32 @pthread_mutex_lock(ptr noundef %22) #13
  store i32 %23, ptr %9, align 4
  %24 = load i32, ptr %9, align 4
  %25 = icmp ne i32 %24, 0
  br i1 %25, label %26, label %29

26:                                               ; preds = %20
  %27 = load i32, ptr %9, align 4
  %28 = call ptr @__errno_location() #14
  store i32 %27, ptr %28, align 4
  call void (ptr, ...) @fatal_abort(ptr noundef @.str.3, ptr noundef @__func__.hostlist_delete_nth) #15
  unreachable

29:                                               ; preds = %20
  call void @llvm.lifetime.end.p0(i64 4, ptr %9) #13
  br label %30

30:                                               ; preds = %29
  br label %31

31:                                               ; preds = %30
  br label %32

32:                                               ; preds = %31
  br label %33

33:                                               ; preds = %32
  store i32 0, ptr %7, align 4
  store i32 0, ptr %6, align 4
  br label %34

34:                                               ; preds = %110, %33
  %35 = load i32, ptr %6, align 4
  %36 = load ptr, ptr %4, align 8
  %37 = getelementptr inbounds nuw %struct.hostlist, ptr %36, i32 0, i32 3
  %38 = load i32, ptr %37, align 4
  %39 = icmp slt i32 %35, %38
  br i1 %39, label %40, label %113

40:                                               ; preds = %34
  call void @llvm.lifetime.start.p0(i64 4, ptr %10) #13
  %41 = load ptr, ptr %4, align 8
  %42 = getelementptr inbounds nuw %struct.hostlist, ptr %41, i32 0, i32 5
  %43 = load ptr, ptr %42, align 8
  %44 = load i32, ptr %6, align 4
  %45 = sext i32 %44 to i64
  %46 = getelementptr inbounds ptr, ptr %43, i64 %45
  %47 = load ptr, ptr %46, align 8
  %48 = call i64 @hostrange_count(ptr noundef %47)
  %49 = trunc i64 %48 to i32
  store i32 %49, ptr %10, align 4
  call void @llvm.lifetime.start.p0(i64 8, ptr %11) #13
  %50 = load ptr, ptr %4, align 8
  %51 = getelementptr inbounds nuw %struct.hostlist, ptr %50, i32 0, i32 5
  %52 = load ptr, ptr %51, align 8
  %53 = load i32, ptr %6, align 4
  %54 = sext i32 %53 to i64
  %55 = getelementptr inbounds ptr, ptr %52, i64 %54
  %56 = load ptr, ptr %55, align 8
  store ptr %56, ptr %11, align 8
  %57 = load i32, ptr %5, align 4
  %58 = load i32, ptr %10, align 4
  %59 = sub nsw i32 %58, 1
  %60 = load i32, ptr %7, align 4
  %61 = add nsw i32 %59, %60
  %62 = icmp sle i32 %57, %61
  br i1 %62, label %63, label %102

63:                                               ; preds = %40
  call void @llvm.lifetime.start.p0(i64 8, ptr %12) #13
  %64 = load ptr, ptr %11, align 8
  %65 = getelementptr inbounds nuw %struct.hostrange_t, ptr %64, i32 0, i32 1
  %66 = load i64, ptr %65, align 8
  %67 = load i32, ptr %5, align 4
  %68 = sext i32 %67 to i64
  %69 = add i64 %66, %68
  %70 = load i32, ptr %7, align 4
  %71 = sext i32 %70 to i64
  %72 = sub i64 %69, %71
  store i64 %72, ptr %12, align 8
  call void @llvm.lifetime.start.p0(i64 8, ptr %13) #13
  %73 = load ptr, ptr %11, align 8
  %74 = getelementptr inbounds nuw %struct.hostrange_t, ptr %73, i32 0, i32 4
  %75 = load i8, ptr %74, align 4, !range !12, !noundef !13
  %76 = trunc i8 %75 to i1
  br i1 %76, label %77, label %80

77:                                               ; preds = %63
  %78 = load ptr, ptr %4, align 8
  %79 = load i32, ptr %6, align 4
  call void @hostlist_delete_range(ptr noundef %78, i32 noundef %79)
  br label %101

80:                                               ; preds = %63
  %81 = load ptr, ptr %11, align 8
  %82 = load i64, ptr %12, align 8
  %83 = call ptr @hostrange_delete_host(ptr noundef %81, i64 noundef %82)
  store ptr %83, ptr %13, align 8
  %84 = icmp ne ptr %83, null
  br i1 %84, label %85, label %92

85:                                               ; preds = %80
  %86 = load ptr, ptr %4, align 8
  %87 = load ptr, ptr %13, align 8
  %88 = load i32, ptr %6, align 4
  %89 = add nsw i32 %88, 1
  %90 = call i32 @hostlist_insert_range(ptr noundef %86, ptr noundef %87, i32 noundef %89)
  %91 = load ptr, ptr %13, align 8
  call void @hostrange_destroy(ptr noundef %91)
  br label %100

92:                                               ; preds = %80
  %93 = load ptr, ptr %11, align 8
  %94 = call i32 @hostrange_empty(ptr noundef %93)
  %95 = icmp ne i32 %94, 0
  br i1 %95, label %96, label %99

96:                                               ; preds = %92
  %97 = load ptr, ptr %4, align 8
  %98 = load i32, ptr %6, align 4
  call void @hostlist_delete_range(ptr noundef %97, i32 noundef %98)
  br label %99

99:                                               ; preds = %96, %92
  br label %100

100:                                              ; preds = %99, %85
  br label %101

101:                                              ; preds = %100, %77
  store i32 9, ptr %8, align 4
  call void @llvm.lifetime.end.p0(i64 8, ptr %13) #13
  call void @llvm.lifetime.end.p0(i64 8, ptr %12) #13
  br label %107

102:                                              ; preds = %40
  %103 = load i32, ptr %10, align 4
  %104 = load i32, ptr %7, align 4
  %105 = add nsw i32 %104, %103
  store i32 %105, ptr %7, align 4
  br label %106

106:                                              ; preds = %102
  store i32 0, ptr %8, align 4
  br label %107

107:                                              ; preds = %106, %101
  call void @llvm.lifetime.end.p0(i64 8, ptr %11) #13
  call void @llvm.lifetime.end.p0(i64 4, ptr %10) #13
  %108 = load i32, ptr %8, align 4
  switch i32 %108, label %134 [
    i32 0, label %109
    i32 9, label %114
  ]

109:                                              ; preds = %107
  br label %110

110:                                              ; preds = %109
  %111 = load i32, ptr %6, align 4
  %112 = add nsw i32 %111, 1
  store i32 %112, ptr %6, align 4
  br label %34, !llvm.loop !14

113:                                              ; preds = %34
  br label %114

114:                                              ; preds = %113, %107
  br label %115

115:                                              ; preds = %114
  br label %116

116:                                              ; preds = %115
  call void @llvm.lifetime.start.p0(i64 4, ptr %14) #13
  %117 = load ptr, ptr %4, align 8
  %118 = getelementptr inbounds nuw %struct.hostlist, ptr %117, i32 0, i32 1
  %119 = call i32 @pthread_mutex_unlock(ptr noundef %118) #13
  store i32 %119, ptr %14, align 4
  %120 = load i32, ptr %14, align 4
  %121 = icmp ne i32 %120, 0
  br i1 %121, label %122, label %125

122:                                              ; preds = %116
  %123 = load i32, ptr %14, align 4
  %124 = call ptr @__errno_location() #14
  store i32 %123, ptr %124, align 4
  call void (ptr, ...) @fatal_abort(ptr noundef @.str.4, ptr noundef @__func__.hostlist_delete_nth) #15
  unreachable

125:                                              ; preds = %116
  call void @llvm.lifetime.end.p0(i64 4, ptr %14) #13
  br label %126

126:                                              ; preds = %125
  br label %127

127:                                              ; preds = %126
  br label %128

128:                                              ; preds = %127
  br label %129

129:                                              ; preds = %128
  %130 = load ptr, ptr %4, align 8
  %131 = getelementptr inbounds nuw %struct.hostlist, ptr %130, i32 0, i32 4
  %132 = load i32, ptr %131, align 8
  %133 = add nsw i32 %132, -1
  store i32 %133, ptr %131, align 8
  store i32 1, ptr %3, align 4
  store i32 1, ptr %8, align 4
  br label %134

134:                                              ; preds = %129, %107, %17
  call void @llvm.lifetime.end.p0(i64 4, ptr %7) #13
  call void @llvm.lifetime.end.p0(i64 4, ptr %6) #13
  %135 = load i32, ptr %3, align 4
  ret i32 %135
}